target datalayout = "e-m:e-p270:32:32-p271:32:32-p272:64:64-i64:64-i128:128-f80:128-n8:16:32:64-S128"
target triple = "x86_64-pc-linux-gnu"

@color_filter_list = internal global ptr null, align 8
@color_filter_deleted_list = internal global ptr null, align 8

; Function Attrs: null_pointer_is_valid sspstrong uwtable
define zeroext i1 @color_filters_reload(ptr noundef %0, ptr noundef %1) #0 {
  %3 = alloca ptr, align 8
  %4 = alloca ptr, align 8
  store ptr %0, ptr %3, align 8
  store ptr %1, ptr %4, align 8
  %5 = load ptr, ptr @color_filter_deleted_list, align 8
  %6 = load ptr, ptr @color_filter_list, align 8
  %7 = call ptr @g_slist_concat(ptr noundef %5, ptr noundef %6)
  store ptr %7, ptr @color_filter_deleted_list, align 8
  store ptr null, ptr @color_filter_list, align 8
  %8 = load ptr, ptr %3, align 8
  %9 = load ptr, ptr %4, align 8
  %10 = call zeroext i1 @color_filters_get(ptr noundef %8, ptr noundef %9)
  ret i1 %10
}