; Function Attrs: null_pointer_is_valid sspstrong uwtable
define noundef zeroext i1 @color_filters_reload(ptr noundef writeonly captures(none) %0, ptr noundef readonly captures(none) %1) local_unnamed_addr #0 {
  %3 = load ptr, ptr @color_filter_deleted_list, align 8
  %4 = load ptr, ptr @color_filter_list, align 8
  %5 = tail call ptr @g_slist_concat(ptr noundef %3, ptr noundef %4)
  store ptr %5, ptr @color_filter_deleted_list, align 8
  store ptr null, ptr @color_filter_list, align 8
  %6 = tail call fastcc zeroext i1 @color_filters_get(ptr noundef %0, ptr noundef %1)
  ret i1 %6
}